; ModuleID = '25/1034.c'
source_filename = "25/1034.c"
target datalayout = "e-m:e-p270:32:32-p271:32:32-p272:64:64-i64:64-f80:128-n8:16:32:64-S128"
target triple = "x86_64-pc-linux-gnu"

@.str = private unnamed_addr constant [3 x i8] c"%d\00", align 1

; Function Attrs: noinline nounwind uwtable
define dso_local i32 @main() #0 {
  %1 = alloca i32, align 4
  %2 = alloca [100 x i32], align 16
  %3 = alloca i32, align 4
  %4 = alloca i32, align 4
  %5 = alloca i32, align 4
  %6 = alloca i32, align 4
  store i32 0, i32* %1, align 4
  %7 = bitcast [100 x i32]* %2 to i8*
  call void @llvm.memset.p0i8.i64(i8* align 16 %7, i8 0, i64 400, i1 false)
  store i32 0, i32* %3, align 4
  %8 = call i32 (i8*, ...) @__isoc99_scanf(i8* getelementptr inbounds ([3 x i8], [3 x i8]* @.str, i64 0, i64 0), i32* %6)
  %9 = getelementptr inbounds [100 x i32], [100 x i32]* %2, i64 0, i64 1
  store i32 1, i32* %9, align 4
  store i32 1, i32* %4, align 4
  br label %10

10:                                               ; preds = %47, %0
  %11 = load i32, i32* %4, align 4
  %12 = load i32, i32* %6, align 4
  %13 = icmp sle i32 %11, %12
  br i1 %13, label %14, label %50

14:                                               ; preds = %10
  store i32 90, i32* %5, align 4
  br label %15

15:                                               ; preds = %43, %14
  %16 = load i32, i32* %5, align 4
  %17 = icmp sge i32 %16, 1
  br i1 %17, label %18, label %46

18:                                               ; preds = %15
  %19 = load i32, i32* %5, align 4
  %20 = sext i32 %19 to i64
  %21 = getelementptr inbounds [100 x i32], [100 x i32]* %2, i64 0, i64 %20
  %22 = load i32, i32* %21, align 4
  %23 = mul nsw i32 %22, 2
  store i32 %23, i32* %21, align 4
  %24 = load i32, i32* %5, align 4
  %25 = sext i32 %24 to i64
  %26 = getelementptr inbounds [100 x i32], [100 x i32]* %2, i64 0, i64 %25
  %27 = load i32, i32* %26, align 4
  %28 = sdiv i32 %27, 10
  %29 = load i32, i32* %5, align 4
  %30 = add nsw i32 %29, 1
  %31 = sext i32 %30 to i64
  %32 = getelementptr inbounds [100 x i32], [100 x i32]* %2, i64 0, i64 %31
  %33 = load i32, i32* %32, align 4
  %34 = add nsw i32 %33, %28
  store i32 %34, i32* %32, align 4
  %35 = load i32, i32* %5, align 4
  %36 = sext i32 %35 to i64
  %37 = getelementptr inbounds [100 x i32], [100 x i32]* %2, i64 0, i64 %36
  %38 = load i32, i32* %37, align 4
  %39 = srem i32 %38, 10
  %40 = load i32, i32* %5, align 4
  %41 = sext i32 %40 to i64
  %42 = getelementptr inbounds [100 x i32], [100 x i32]* %2, i64 0, i64 %41
  store i32 %39, i32* %42, align 4
  br label %43

43:                                               ; preds = %18
  %44 = load i32, i32* %5, align 4
  %45 = add nsw i32 %44, -1
  store i32 %45, i32* %5, align 4
  br label %15

46:                                               ; preds = %15
  br label %47

47:                                               ; preds = %46
  %48 = load i32, i32* %4, align 4
  %49 = add nsw i32 %48, 1
  store i32 %49, i32* %4, align 4
  br label %10

50:                                               ; preds = %10
  store i32 99, i32* %6, align 4
  br label %51

51:                                               ; preds = %70, %50
  %52 = load i32, i32* %6, align 4
  %53 = icmp ne i32 %52, 0
  br i1 %53, label %54, label %73

54:                                               ; preds = %51
  %55 = load i32, i32* %6, align 4
  %56 = sext i32 %55 to i64
  %57 = getelementptr inbounds [100 x i32], [100 x i32]* %2, i64 0, i64 %56
  %58 = load i32, i32* %57, align 4
  %59 = icmp ne i32 %58, 0
  br i1 %59, label %60, label %61

60:                                               ; preds = %54
  store i32 1, i32* %3, align 4
  br label %61

61:                                               ; preds = %60, %54
  %62 = load i32, i32* %3, align 4
  %63 = icmp ne i32 %62, 0
  br i1 %63, label %64, label %70

64:                                               ; preds = %61
  %65 = load i32, i32* %6, align 4
  %66 = sext i32 %65 to i64
  %67 = getelementptr inbounds [100 x i32], [100 x i32]* %2, i64 0, i64 %66
  %68 = load i32, i32* %67, align 4
  %69 = call i32 (i8*, ...) @printf(i8* getelementptr inbounds ([3 x i8], [3 x i8]* @.str, i64 0, i64 0), i32 %68)
  br label %70

70:                                               ; preds = %64, %61
  %71 = load i32, i32* %6, align 4
  %72 = add nsw i32 %71, -1
  store i32 %72, i32* %6, align 4
  br label %51

73:                                               ; preds = %51
  %74 = load i32, i32* %1, align 4
  ret i32 %74
}

; Function Attrs: argmemonly nounwind willreturn
declare void @llvm.memset.p0i8.i64(i8* nocapture writeonly, i8, i64, i1 immarg) #1

declare dso_local i32 @__isoc99_scanf(i8*, ...) #2

declare dso_local i32 @printf(i8*, ...) #2


!llvm.module.flags = !{!0}
!llvm.ident = !{!1}

!0 = !{i32 1, !"wchar_size", i32 4}
!1 = !{!"clang version 10.0.0-4ubuntu1 "}
