; ModuleID = 'source-C-CXX/24/1034.c'
source_filename = "source-C-CXX/24/1034.c"
target datalayout = "e-m:e-p270:32:32-p271:32:32-p272:64:64-i64:64-f80:128-n8:16:32:64-S128"
target triple = "x86_64-pc-linux-gnu"

@.str = private unnamed_addr constant [3 x i8] c"%d\00", align 1

; Function Attrs: nofree nounwind sspstrong uwtable
define dso_local i32 @main() local_unnamed_addr #0 {
  %1 = alloca [100 x i32], align 16
  %2 = alloca i32, align 4
  %3 = bitcast [100 x i32]* %1 to i8*
  call void @llvm.lifetime.start.p0i8(i64 400, i8* nonnull %3) #4
  call void @llvm.memset.p0i8.i64(i8* noundef nonnull align 16 dereferenceable(400) %3, i8 0, i64 400, i1 false)
  %4 = bitcast i32* %2 to i8*
  call void @llvm.lifetime.start.p0i8(i64 4, i8* nonnull %4) #4
  %5 = call i32 (i8*, ...) @__isoc99_scanf(i8* getelementptr inbounds ([3 x i8], [3 x i8]* @.str, i64 0, i64 0), i32* nonnull %2)
  %6 = getelementptr inbounds [100 x i32], [100 x i32]* %1, i64 0, i64 1
  store i32 1, i32* %6, align 4, !tbaa !5
  %7 = load i32, i32* %2, align 4, !tbaa !5
  %8 = icmp slt i32 %7, 1
  br i1 %8, label %14, label %9

9:                                                ; preds = %0
  %10 = getelementptr inbounds [100 x i32], [100 x i32]* %1, i64 0, i64 91
  br label %11

11:                                               ; preds = %30, %9
  %12 = phi i32 [ %32, %30 ], [ 0, %9 ]
  %13 = phi i32 [ %31, %30 ], [ 1, %9 ]
  br label %15

14:                                               ; preds = %28, %0
  store i32 99, i32* %2, align 4, !tbaa !5
  br label %33

15:                                               ; preds = %11, %15
  %16 = phi i32 [ %12, %11 ], [ %25, %15 ]
  %17 = phi i64 [ 90, %11 ], [ %26, %15 ]
  %18 = getelementptr inbounds [100 x i32], [100 x i32]* %1, i64 0, i64 %17
  %19 = load i32, i32* %18, align 4, !tbaa !5
  %20 = shl nsw i32 %19, 1
  %21 = sdiv i32 %19, 5
  %22 = add nuw nsw i64 %17, 1
  %23 = getelementptr inbounds [100 x i32], [100 x i32]* %1, i64 0, i64 %22
  %24 = add nsw i32 %16, %21
  store i32 %24, i32* %23, align 4, !tbaa !5
  %25 = srem i32 %20, 10
  store i32 %25, i32* %18, align 4, !tbaa !5
  %26 = add nsw i64 %17, -1
  %27 = icmp ugt i64 %17, 1
  br i1 %27, label %15, label %28, !llvm.loop !9

28:                                               ; preds = %15
  %29 = icmp eq i32 %13, %7
  br i1 %29, label %14, label %30, !llvm.loop !11

30:                                               ; preds = %28
  %31 = add nuw i32 %13, 1
  %32 = load i32, i32* %10, align 4, !tbaa !5
  br label %11

33:                                               ; preds = %14, %45
  %34 = phi i32 [ 0, %14 ], [ %40, %45 ]
  %35 = phi i32 [ 99, %14 ], [ %47, %45 ]
  %36 = sext i32 %35 to i64
  %37 = getelementptr inbounds [100 x i32], [100 x i32]* %1, i64 0, i64 %36
  %38 = load i32, i32* %37, align 4, !tbaa !5
  %39 = icmp eq i32 %38, 0
  %40 = select i1 %39, i32 %34, i32 1
  %41 = icmp eq i32 %40, 0
  br i1 %41, label %45, label %42

42:                                               ; preds = %33
  %43 = call i32 (i8*, ...) @printf(i8* nonnull dereferenceable(1) getelementptr inbounds ([3 x i8], [3 x i8]* @.str, i64 0, i64 0), i32 %38)
  %44 = load i32, i32* %2, align 4, !tbaa !5
  br label %45

45:                                               ; preds = %42, %33
  %46 = phi i32 [ %44, %42 ], [ %35, %33 ]
  %47 = add nsw i32 %46, -1
  store i32 %47, i32* %2, align 4, !tbaa !5
  %48 = icmp eq i32 %47, 0
  br i1 %48, label %49, label %33, !llvm.loop !12

49:                                               ; preds = %45
  call void @llvm.lifetime.end.p0i8(i64 4, i8* nonnull %4) #4
  call void @llvm.lifetime.end.p0i8(i64 400, i8* nonnull %3) #4
  ret i32 0
}

; Function Attrs: argmemonly mustprogress nofree nosync nounwind willreturn
declare void @llvm.lifetime.start.p0i8(i64 immarg, i8* nocapture) #1

; Function Attrs: argmemonly mustprogress nofree nounwind willreturn writeonly
declare void @llvm.memset.p0i8.i64(i8* nocapture writeonly, i8, i64, i1 immarg) #2

; Function Attrs: nofree nounwind
declare noundef i32 @__isoc99_scanf(i8* nocapture noundef readonly, ...) local_unnamed_addr #3

; Function Attrs: nofree nounwind
declare noundef i32 @printf(i8* nocapture noundef readonly, ...) local_unnamed_addr #3

; Function Attrs: argmemonly mustprogress nofree nosync nounwind willreturn
declare void @llvm.lifetime.end.p0i8(i64 immarg, i8* nocapture) #1


!llvm.module.flags = !{!0, !1, !2, !3}
!llvm.ident = !{!4}

!0 = !{i32 1, !"wchar_size", i32 4}
!1 = !{i32 7, !"PIC Level", i32 2}
!2 = !{i32 7, !"PIE Level", i32 2}
!3 = !{i32 7, !"uwtable", i32 1}
!4 = !{!"clang version 13.0.0"}
!5 = !{!6, !6, i64 0}
!6 = !{!"int", !7, i64 0}
!7 = !{!"omnipotent char", !8, i64 0}
!8 = !{!"Simple C/C++ TBAA"}
!9 = distinct !{!9, !10}
!10 = !{!"llvm.loop.mustprogress"}
!11 = distinct !{!11, !10}
!12 = distinct !{!12, !10}
